target datalayout = "e-m:e-p270:32:32-p271:32:32-p272:64:64-i64:64-i128:128-f80:128-n8:16:32:64-S128"
target triple = "x86_64-pc-linux-gnu"

%struct.JavaVMInitArgs = type { i32, i32, ptr, i8 }
%struct.JavaVMOption = type { ptr, ptr }
%class.ScopedVMInitArgs = type { %struct.JavaVMInitArgs, ptr, i8, ptr }

@.str.264 = private unnamed_addr constant [19 x i8] c"-XX:VMOptionsFile=\00", align 1
@.str.265 = private unnamed_addr constant [168 x i8] c"A VM options file may not refer to a VM options file. Specification of '-XX:VMOptionsFile=<file-name>' in the options file '%s' in options container '%s' is an error.\0A\00", align 1
@DisplayVMOutputToStdout = external global i8, align 1
@_ZN13defaultStream14_output_streamE = external global ptr, align 8
@_ZN13defaultStream13_error_streamE = external global ptr, align 8

; Function Attrs: mustprogress nounwind uwtable
define internal noundef zeroext i1 @_ZL12match_optionPK12JavaVMOptionPKcPS3_(ptr noundef %0, ptr noundef %1, ptr noundef %2) #1 {
  %4 = alloca i1, align 1
  %5 = alloca ptr, align 8
  %6 = alloca ptr, align 8
  %7 = alloca ptr, align 8
  %8 = alloca i64, align 8
  store ptr %0, ptr %5, align 8
  store ptr %1, ptr %6, align 8
  store ptr %2, ptr %7, align 8
  %9 = load ptr, ptr %6, align 8
  %10 = call i64 @strlen(ptr noundef %9) #12
  store i64 %10, ptr %8, align 8
  %11 = load ptr, ptr %5, align 8
  %12 = getelementptr inbounds %struct.JavaVMOption, ptr %11, i32 0, i32 0
  %13 = load ptr, ptr %12, align 8
  %14 = load ptr, ptr %6, align 8
  %15 = load i64, ptr %8, align 8
  %16 = call i32 @strncmp(ptr noundef %13, ptr noundef %14, i64 noundef %15) #12
  %17 = icmp eq i32 %16, 0
  br i1 %17, label %18, label %25

18:                                               ; preds = %3
  %19 = load ptr, ptr %5, align 8
  %20 = getelementptr inbounds %struct.JavaVMOption, ptr %19, i32 0, i32 0
  %21 = load ptr, ptr %20, align 8
  %22 = load i64, ptr %8, align 8
  %23 = getelementptr inbounds i8, ptr %21, i64 %22
  %24 = load ptr, ptr %7, align 8
  store ptr %23, ptr %24, align 8
  store i1 true, ptr %4, align 1
  br label %26

25:                                               ; preds = %3
  store i1 false, ptr %4, align 1
  br label %26

26:                                               ; preds = %25, %18
  %27 = load i1, ptr %4, align 1
  ret i1 %27
}

; Function Attrs: mustprogress nounwind uwtable
define linkonce_odr hidden noundef ptr @_ZN16ScopedVMInitArgs14container_nameEv(ptr noundef nonnull align 8 dereferenceable(48) %0) #1 comdat align 2 {
  %2 = alloca ptr, align 8
  store ptr %0, ptr %2, align 8
  %3 = load ptr, ptr %2, align 8
  %4 = getelementptr inbounds %class.ScopedVMInitArgs, ptr %3, i32 0, i32 1
  %5 = load ptr, ptr %4, align 8
  ret ptr %5
}

; Function Attrs: mustprogress nounwind uwtable
define linkonce_odr hidden noundef ptr @_ZN16ScopedVMInitArgs19vm_options_file_argEv(ptr noundef nonnull align 8 dereferenceable(48) %0) #1 comdat align 2 {
  %2 = alloca ptr, align 8
  store ptr %0, ptr %2, align 8
  %3 = load ptr, ptr %2, align 8
  %4 = getelementptr inbounds %class.ScopedVMInitArgs, ptr %3, i32 0, i32 3
  %5 = load ptr, ptr %4, align 8
  ret ptr %5
}

; Function Attrs: mustprogress nounwind uwtable
define linkonce_odr hidden noundef ptr @_ZN13defaultStream12error_streamEv() #1 comdat align 2 {
  %1 = load i8, ptr @DisplayVMOutputToStdout, align 1
  %2 = trunc i8 %1 to i1
  br i1 %2, label %3, label %5

3:                                                ; preds = %0
  %4 = load ptr, ptr @_ZN13defaultStream14_output_streamE, align 8
  br label %7

5:                                                ; preds = %0
  %6 = load ptr, ptr @_ZN13defaultStream13_error_streamE, align 8
  br label %7

7:                                                ; preds = %5, %3
  %8 = phi ptr [ %4, %3 ], [ %6, %5 ]
  ret ptr %8
}

; Function Attrs: mustprogress nounwind uwtable
define hidden noundef zeroext i1 @_ZN9Arguments33args_contains_vm_options_file_argEPK14JavaVMInitArgs(ptr noundef %0) #1 align 2 {
  %2 = alloca i1, align 1
  %3 = alloca ptr, align 8
  %4 = alloca i32, align 4
  %5 = alloca ptr, align 8
  %6 = alloca ptr, align 8
  store ptr %0, ptr %3, align 8
  store i32 0, ptr %4, align 4
  br label %7

7:                                                ; preds = %24, %1
  %8 = load i32, ptr %4, align 4
  %9 = load ptr, ptr %3, align 8
  %10 = getelementptr inbounds %struct.JavaVMInitArgs, ptr %9, i32 0, i32 1
  %11 = load i32, ptr %10, align 4
  %12 = icmp slt i32 %8, %11
  br i1 %12, label %13, label %27

13:                                               ; preds = %7
  %14 = load ptr, ptr %3, align 8
  %15 = getelementptr inbounds %struct.JavaVMInitArgs, ptr %14, i32 0, i32 2
  %16 = load ptr, ptr %15, align 8
  %17 = load i32, ptr %4, align 4
  %18 = sext i32 %17 to i64
  %19 = getelementptr inbounds %struct.JavaVMOption, ptr %16, i64 %18
  store ptr %19, ptr %5, align 8
  %20 = load ptr, ptr %5, align 8
  %21 = call noundef zeroext i1 @_ZL12match_optionPK12JavaVMOptionPKcPS3_(ptr noundef %20, ptr noundef @.str.264, ptr noundef %6)
  br i1 %21, label %22, label %23

22:                                               ; preds = %13
  store i1 true, ptr %2, align 1
  br label %28

23:                                               ; preds = %13
  br label %24

24:                                               ; preds = %23
  %25 = load i32, ptr %4, align 4
  %26 = add nsw i32 %25, 1
  store i32 %26, ptr %4, align 4
  br label %7, !llvm.loop !29

27:                                               ; preds = %7
  store i1 false, ptr %2, align 1
  br label %28

28:                                               ; preds = %27, %22
  %29 = load i1, ptr %2, align 1
  ret i1 %29
}

; Function Attrs: mustprogress nounwind uwtable
define linkonce_odr hidden noundef ptr @_ZN16ScopedVMInitArgs3getEv(ptr noundef nonnull align 8 dereferenceable(48) %0) #1 comdat align 2 {
  %2 = alloca ptr, align 8
  store ptr %0, ptr %2, align 8
  %3 = load ptr, ptr %2, align 8
  %4 = getelementptr inbounds %class.ScopedVMInitArgs, ptr %3, i32 0, i32 0
  ret ptr %4
}

; Function Attrs: mustprogress nounwind uwtable
define hidden noundef i32 @_ZN9Arguments22insert_vm_options_fileEPK14JavaVMInitArgsPKciP16ScopedVMInitArgsS6_(ptr noundef %0, ptr noundef %1, i32 noundef %2, ptr noundef %3, ptr noundef %4) #1 align 2 {
  %6 = alloca i32, align 4
  %7 = alloca ptr, align 8
  %8 = alloca ptr, align 8
  %9 = alloca i32, align 4
  %10 = alloca ptr, align 8
  %11 = alloca ptr, align 8
  %12 = alloca i32, align 4
  store ptr %0, ptr %7, align 8
  store ptr %1, ptr %8, align 8
  store i32 %2, ptr %9, align 4
  store ptr %3, ptr %10, align 8
  store ptr %4, ptr %11, align 8
  %13 = load ptr, ptr %8, align 8
  %14 = load ptr, ptr %10, align 8
  %15 = call noundef i32 @_ZN9Arguments21parse_vm_options_fileEPKcP16ScopedVMInitArgs(ptr noundef %13, ptr noundef %14)
  store i32 %15, ptr %12, align 4
  %16 = load i32, ptr %12, align 4
  %17 = icmp ne i32 %16, 0
  br i1 %17, label %18, label %20

18:                                               ; preds = %5
  %19 = load i32, ptr %12, align 4
  store i32 %19, ptr %6, align 4
  br label %45

20:                                               ; preds = %5
  %21 = load ptr, ptr %10, align 8
  %22 = call noundef ptr @_ZN16ScopedVMInitArgs3getEv(ptr noundef nonnull align 8 dereferenceable(48) %21)
  %23 = getelementptr inbounds %struct.JavaVMInitArgs, ptr %22, i32 0, i32 1
  %24 = load i32, ptr %23, align 4
  %25 = icmp slt i32 %24, 1
  br i1 %25, label %26, label %27

26:                                               ; preds = %20
  store i32 0, ptr %6, align 4
  br label %45

27:                                               ; preds = %20
  %28 = load ptr, ptr %10, align 8
  %29 = call noundef ptr @_ZN16ScopedVMInitArgs3getEv(ptr noundef nonnull align 8 dereferenceable(48) %28)
  %30 = call noundef zeroext i1 @_ZN9Arguments33args_contains_vm_options_file_argEPK14JavaVMInitArgs(ptr noundef %29)
  br i1 %30, label %31, label %38

31:                                               ; preds = %27
  %32 = call noundef ptr @_ZN13defaultStream12error_streamEv()
  %33 = load ptr, ptr %10, align 8
  %34 = call noundef ptr @_ZN16ScopedVMInitArgs19vm_options_file_argEv(ptr noundef nonnull align 8 dereferenceable(48) %33)
  %35 = load ptr, ptr %10, align 8
  %36 = call noundef ptr @_ZN16ScopedVMInitArgs14container_nameEv(ptr noundef nonnull align 8 dereferenceable(48) %35)
  %37 = call i32 (ptr, ptr, ...) @jio_fprintf(ptr noundef %32, ptr noundef @.str.265, ptr noundef %34, ptr noundef %36)
  store i32 -6, ptr %6, align 4
  br label %45

38:                                               ; preds = %27
  %39 = load ptr, ptr %11, align 8
  %40 = load ptr, ptr %7, align 8
  %41 = load ptr, ptr %10, align 8
  %42 = call noundef ptr @_ZN16ScopedVMInitArgs3getEv(ptr noundef nonnull align 8 dereferenceable(48) %41)
  %43 = load i32, ptr %9, align 4
  %44 = call noundef i32 @_ZN16ScopedVMInitArgs6insertEPK14JavaVMInitArgsS2_i(ptr noundef nonnull align 8 dereferenceable(48) %39, ptr noundef %40, ptr noundef %42, i32 noundef %43)
  store i32 %44, ptr %6, align 4
  br label %45

45:                                               ; preds = %38, %31, %26, %18
  %46 = load i32, ptr %6, align 4
  ret i32 %46
}