; Function Attrs: mustprogress nounwind uwtable
define hidden noundef i32 @_ZN9Arguments22insert_vm_options_fileEPK14JavaVMInitArgsPKciP16ScopedVMInitArgsS6_(ptr noundef %0, ptr noundef %1, i32 noundef %2, ptr noundef %3, ptr noundef %4) local_unnamed_addr #0 align 2 {
  %6 = tail call noundef i32 @_ZN9Arguments21parse_vm_options_fileEPKcP16ScopedVMInitArgs(ptr noundef %1, ptr noundef %3)
  %.not = icmp eq i32 %6, 0
  br i1 %.not, label %7, label %32

7:                                                ; preds = %5
  %8 = getelementptr inbounds i8, ptr %3, i64 4
  %9 = load i32, ptr %8, align 4
  %10 = icmp slt i32 %9, 1
  br i1 %10, label %32, label %_ZL12match_optionPK12JavaVMOptionPKcPS3_.exit.lr.ph.i

_ZL12match_optionPK12JavaVMOptionPKcPS3_.exit.lr.ph.i: ; preds = %7
  %11 = getelementptr inbounds i8, ptr %3, i64 8
  %12 = load ptr, ptr %11, align 8
  %13 = zext nneg i32 %9 to i64
  %.val.i13 = load ptr, ptr %12, align 8
  %14 = tail call i32 @strncmp(ptr noundef nonnull dereferenceable(1) %.val.i13, ptr noundef nonnull readonly dereferenceable(19) @.str.264, i64 noundef 18) #30
  %15 = icmp eq i32 %14, 0
  br i1 %15, label %.critedge, label %.lr.ph

.lr.ph:                                           ; preds = %_ZL12match_optionPK12JavaVMOptionPKcPS3_.exit.lr.ph.i, %_ZL12match_optionPK12JavaVMOptionPKcPS3_.exit.i
  %indvars.iv.i14 = phi i64 [ %indvars.iv.next.i, %_ZL12match_optionPK12JavaVMOptionPKcPS3_.exit.i ], [ 0, %_ZL12match_optionPK12JavaVMOptionPKcPS3_.exit.lr.ph.i ]
  %indvars.iv.next.i = add nuw nsw i64 %indvars.iv.i14, 1
  %exitcond.not.i = icmp eq i64 %indvars.iv.next.i, %13
  br i1 %exitcond.not.i, label %_ZN9Arguments33args_contains_vm_options_file_argEPK14JavaVMInitArgs.exit, label %_ZL12match_optionPK12JavaVMOptionPKcPS3_.exit.i, !llvm.loop !35

_ZL12match_optionPK12JavaVMOptionPKcPS3_.exit.i:  ; preds = %.lr.ph
  %16 = getelementptr inbounds %struct.JavaVMOption, ptr %12, i64 %indvars.iv.next.i
  %.val.i = load ptr, ptr %16, align 8
  %17 = tail call i32 @strncmp(ptr noundef nonnull dereferenceable(1) %.val.i, ptr noundef nonnull readonly dereferenceable(19) @.str.264, i64 noundef 18) #30
  %18 = icmp eq i32 %17, 0
  br i1 %18, label %_ZN9Arguments33args_contains_vm_options_file_argEPK14JavaVMInitArgs.exit, label %.lr.ph, !llvm.loop !35

_ZN9Arguments33args_contains_vm_options_file_argEPK14JavaVMInitArgs.exit: ; preds = %_ZL12match_optionPK12JavaVMOptionPKcPS3_.exit.i, %.lr.ph
  %19 = icmp ult i64 %indvars.iv.next.i, %13
  br i1 %19, label %.critedge, label %30

.critedge:                                        ; preds = %_ZL12match_optionPK12JavaVMOptionPKcPS3_.exit.lr.ph.i, %_ZN9Arguments33args_contains_vm_options_file_argEPK14JavaVMInitArgs.exit
  %20 = load i8, ptr @DisplayVMOutputToStdout, align 1
  %21 = trunc i8 %20 to i1
  %22 = load ptr, ptr @_ZN13defaultStream14_output_streamE, align 8
  %23 = load ptr, ptr @_ZN13defaultStream13_error_streamE, align 8
  %24 = select i1 %21, ptr %22, ptr %23
  %25 = getelementptr inbounds i8, ptr %3, i64 40
  %26 = load ptr, ptr %25, align 8
  %27 = getelementptr inbounds i8, ptr %3, i64 24
  %28 = load ptr, ptr %27, align 8
  %29 = tail call i32 (ptr, ptr, ...) @jio_fprintf(ptr noundef %24, ptr noundef nonnull @.str.265, ptr noundef %26, ptr noundef %28) #31
  br label %32

30:                                               ; preds = %_ZN9Arguments33args_contains_vm_options_file_argEPK14JavaVMInitArgs.exit
  %31 = tail call noundef i32 @_ZN16ScopedVMInitArgs6insertEPK14JavaVMInitArgsS2_i(ptr noundef nonnull align 8 dereferenceable(48) %4, ptr noundef %0, ptr noundef %3, i32 noundef %2)
  br label %32

32:                                               ; preds = %7, %5, %30, %.critedge
  %.0 = phi i32 [ -6, %.critedge ], [ %31, %30 ], [ %6, %5 ], [ 0, %7 ]
  ret i32 %.0
}